; Function Attrs: mustprogress uwtable
define internal fastcc void @_ZN8facebook6hermes7tracing12_GLOBAL__N_113doublePrinterB5cxx11Ed(ptr noalias nonnull align 8 %agg.result, double noundef %x) unnamed_addr #1 personality ptr @__gxx_personality_v0 {
invoke.cont3:
  %resultStream = alloca %"class.llvh::raw_string_ostream", align 8
  tail call void @_ZNSt7__cxx1112basic_stringIcSt11char_traitsIcESaIcEEC1Ev(ptr noundef nonnull align 8 dereferenceable(32) %agg.result) #23
  %BufferMode.i.i = getelementptr inbounds i8, ptr %resultStream, i64 32
  store i32 1, ptr %BufferMode.i.i, align 8
  %OutBufStart.i.i = getelementptr inbounds i8, ptr %resultStream, i64 8
  call void @llvm.memset.p0.i64(ptr noundef nonnull align 8 dereferenceable(24) %OutBufStart.i.i, i8 0, i64 24, i1 false)
  store ptr getelementptr inbounds ({ [13 x ptr] }, ptr @_ZTVN4llvh18raw_string_ostreamE, i64 0, i32 0, i64 2), ptr %resultStream, align 8
  %OS.i = getelementptr inbounds i8, ptr %resultStream, i64 40
  store ptr %agg.result, ptr %OS.i, align 8
  %0 = bitcast double %x to i64
  invoke void @_ZN4llvh9write_hexERNS_11raw_ostreamEmNS_13HexPrintStyleENS_8OptionalImEE(ptr noundef nonnull align 8 dereferenceable(36) %resultStream, i64 noundef %0, i32 noundef 3, i64 16, i8 1)
          to label %invoke.cont4 unwind label %lpad1

invoke.cont4:                                     ; preds = %invoke.cont3
  %OutBufCur.i = getelementptr inbounds i8, ptr %resultStream, i64 24
  %1 = load ptr, ptr %OutBufCur.i, align 8
  %2 = load ptr, ptr %OutBufStart.i.i, align 8
  %cmp.not.i = icmp eq ptr %1, %2
  br i1 %cmp.not.i, label %invoke.cont5, label %if.then.i

if.then.i:                                        ; preds = %invoke.cont4
  invoke void @_ZN4llvh11raw_ostream14flush_nonemptyEv(ptr noundef nonnull align 8 dereferenceable(36) %resultStream)
          to label %invoke.cont5 unwind label %lpad1

invoke.cont5:                                     ; preds = %invoke.cont4, %if.then.i
  call void @_ZN4llvh18raw_string_ostreamD1Ev(ptr noundef nonnull align 8 dereferenceable(48) %resultStream) #23
  ret void

lpad1:                                            ; preds = %if.then.i, %invoke.cont3
  %3 = landingpad { ptr, i32 }
          cleanup
  call void @_ZN4llvh18raw_string_ostreamD1Ev(ptr noundef nonnull align 8 dereferenceable(48) %resultStream) #23
  call void @_ZNSt7__cxx1112basic_stringIcSt11char_traitsIcESaIcEED1Ev(ptr noundef nonnull align 8 dereferenceable(32) %agg.result) #23
  resume { ptr, i32 } %3
}